; Function Attrs: nounwind uwtable
define i32 @Gia_ManQuantExist(ptr noundef %0, i32 noundef %1, ptr noundef readonly captures(none) %2, ptr noundef %3) local_unnamed_addr #2 {
  %5 = tail call noalias dereferenceable_or_null(16) ptr @malloc(i64 noundef 16) #18
  %6 = getelementptr inbounds nuw i8, ptr %5, i64 4
  store i32 0, ptr %6, align 4, !tbaa !36
  store i32 100, ptr %5, align 8, !tbaa !46
  %7 = tail call noalias dereferenceable_or_null(400) ptr @malloc(i64 noundef 400) #18
  %8 = getelementptr inbounds nuw i8, ptr %5, i64 8
  store ptr %7, ptr %8, align 8, !tbaa !37
  %9 = tail call noalias dereferenceable_or_null(16) ptr @malloc(i64 noundef 16) #18
  %10 = getelementptr inbounds nuw i8, ptr %9, i64 4
  store i32 0, ptr %10, align 4, !tbaa !36
  store i32 100, ptr %9, align 8, !tbaa !46
  %11 = tail call noalias dereferenceable_or_null(400) ptr @malloc(i64 noundef 400) #18
  %12 = getelementptr inbounds nuw i8, ptr %9, i64 8
  store ptr %11, ptr %12, align 8, !tbaa !37
  %13 = tail call noalias dereferenceable_or_null(16) ptr @malloc(i64 noundef 16) #18
  %14 = getelementptr inbounds nuw i8, ptr %13, i64 4
  store i32 0, ptr %14, align 4, !tbaa !36
  store i32 100, ptr %13, align 8, !tbaa !46
  %15 = tail call noalias dereferenceable_or_null(400) ptr @malloc(i64 noundef 400) #18
  %16 = getelementptr inbounds nuw i8, ptr %13, i64 8
  store ptr %15, ptr %16, align 8, !tbaa !37
  %17 = ashr i32 %1, 1
  %18 = getelementptr i8, ptr %0, i64 980
  %19 = getelementptr i8, ptr %0, i64 984
  %.val12.i.i = load ptr, ptr %19, align 8, !tbaa !32
  %20 = getelementptr i8, ptr %.val12.i.i, i64 8
  %.val12.val.i.i = load ptr, ptr %20, align 8, !tbaa !33
  %21 = load i32, ptr %18, align 4, !tbaa !31
  %22 = icmp sgt i32 %21, 0
  br i1 %22, label %.lr.ph.preheader.i.i.i, label %Abc_TtClear.exit.i.i

.lr.ph.preheader.i.i.i:                           ; preds = %4
  %23 = zext nneg i32 %21 to i64
  %24 = shl nuw nsw i64 %23, 3
  tail call void @llvm.memset.p0.i64(ptr align 8 %.val12.val.i.i, i8 0, i64 %24, i1 false), !tbaa !38
  br label %Abc_TtClear.exit.i.i

Abc_TtClear.exit.i.i:                             ; preds = %.lr.ph.preheader.i.i.i, %4
  %25 = getelementptr i8, ptr %0, i64 1012
  %.val1315.i.i = load i32, ptr %25, align 4, !tbaa !36
  %26 = icmp sgt i32 %.val1315.i.i, 0
  br i1 %26, label %.lr.ph.i.i, label %Gia_ManQuantCollect.exit

.lr.ph.i.i:                                       ; preds = %Abc_TtClear.exit.i.i
  %27 = getelementptr i8, ptr %0, i64 1016
  br label %28

28:                                               ; preds = %40, %.lr.ph.i.i
  %indvars.iv.i.i = phi i64 [ 0, %.lr.ph.i.i ], [ %indvars.iv.next.i.i, %40 ]
  %.val14.i.i = load ptr, ptr %27, align 8, !tbaa !37
  %29 = getelementptr inbounds nuw i32, ptr %.val14.i.i, i64 %indvars.iv.i.i
  %30 = load i32, ptr %29, align 4, !tbaa !29
  %31 = tail call i32 %2(ptr noundef %3, i32 noundef %30) #17
  %.not.i.i = icmp eq i32 %31, 0
  br i1 %.not.i.i, label %32, label %40

32:                                               ; preds = %28
  %33 = and i64 %indvars.iv.i.i, 63
  %34 = shl nuw i64 1, %33
  %35 = lshr i64 %indvars.iv.i.i, 6
  %36 = and i64 %35, 67108863
  %37 = getelementptr inbounds nuw i64, ptr %.val12.val.i.i, i64 %36
  %38 = load i64, ptr %37, align 8, !tbaa !38
  %39 = or i64 %38, %34
  store i64 %39, ptr %37, align 8, !tbaa !38
  br label %40

40:                                               ; preds = %32, %28
  %indvars.iv.next.i.i = add nuw nsw i64 %indvars.iv.i.i, 1
  %.val13.i.i = load i32, ptr %25, align 4, !tbaa !36
  %41 = sext i32 %.val13.i.i to i64
  %42 = icmp slt i64 %indvars.iv.next.i.i, %41
  br i1 %42, label %28, label %Gia_ManQuantCollect.exit, !llvm.loop !50

Gia_ManQuantCollect.exit:                         ; preds = %40, %Abc_TtClear.exit.i.i
  tail call void @Gia_ManIncrementTravId(ptr noundef nonnull %0) #17
  tail call void @Gia_ManQuantCollect_rec(ptr noundef nonnull %0, i32 noundef %17, ptr noundef nonnull %5, ptr noundef nonnull %9, ptr noundef nonnull %13)
  %43 = tail call i32 @Gia_ManQuantExistInt(ptr noundef nonnull %0, i32 noundef %1, ptr noundef nonnull %5, ptr noundef nonnull %9, ptr noundef nonnull %13)
  %44 = load ptr, ptr %8, align 8, !tbaa !37
  %.not.i = icmp eq ptr %44, null
  br i1 %.not.i, label %Vec_IntFree.exit, label %45

45:                                               ; preds = %Gia_ManQuantCollect.exit
  tail call void @free(ptr noundef nonnull %44) #17
  br label %Vec_IntFree.exit

Vec_IntFree.exit:                                 ; preds = %Gia_ManQuantCollect.exit, %45
  tail call void @free(ptr noundef nonnull %5) #17
  %46 = load ptr, ptr %12, align 8, !tbaa !37
  %.not.i15 = icmp eq ptr %46, null
  br i1 %.not.i15, label %Vec_IntFree.exit16, label %47

47:                                               ; preds = %Vec_IntFree.exit
  tail call void @free(ptr noundef nonnull %46) #17
  br label %Vec_IntFree.exit16

Vec_IntFree.exit16:                               ; preds = %Vec_IntFree.exit, %47
  tail call void @free(ptr noundef nonnull %9) #17
  %48 = load ptr, ptr %16, align 8, !tbaa !37
  %.not.i17 = icmp eq ptr %48, null
  br i1 %.not.i17, label %Vec_IntFree.exit18, label %49

49:                                               ; preds = %Vec_IntFree.exit16
  tail call void @free(ptr noundef nonnull %48) #17
  br label %Vec_IntFree.exit18

Vec_IntFree.exit18:                               ; preds = %Vec_IntFree.exit16, %49
  tail call void @free(ptr noundef nonnull %13) #17
  ret i32 %43
}